; Function Attrs: nounwind uwtable
define internal void @dissect_lbt_indication_message_body_value(ptr noundef %0, ptr noundef %1) #0 {
  %3 = alloca i32, align 4
  %4 = alloca i32, align 4
  %5 = alloca i32, align 4
  %6 = load i32, ptr @hf_nfapi_number_pdus, align 4
  %7 = call ptr @ptvcursor_add_ret_uint(ptr noundef %0, i32 noundef %6, i32 noundef 2, i32 noundef 0, ptr noundef nonnull %5) #7
  %8 = load i32, ptr %5, align 4
  %9 = add i32 %8, -1
  %or.cond = icmp ult i32 %9, 2
  br i1 %or.cond, label %.thread, label %10

10:                                               ; preds = %2
  %11 = call ptr (ptr, ptr, ptr, ptr, ...) @expert_add_info_format(ptr noundef %1, ptr noundef %7, ptr noundef nonnull @ei_invalid_range, ptr noundef nonnull @.str.2282) #7
  %.pr = load i32, ptr %5, align 4
  %.not.i = icmp eq i32 %.pr, 0
  br i1 %.not.i, label %dissect_array_value.exit, label %.thread

.thread:                                          ; preds = %2, %10
  %12 = phi i32 [ %.pr, %10 ], [ %8, %2 ]
  %13 = load i32, ptr @ett_nfapi_lbt_dl_indication_pdu_list, align 4
  %14 = call ptr (ptr, i32, i32, ptr, ...) @ptvcursor_add_text_with_subtree(ptr noundef %0, i32 noundef -1, i32 noundef %13, ptr noundef nonnull @.str.1839, ptr noundef nonnull @.str.2283) #7
  br label %15

15:                                               ; preds = %dissect_lbt_dl_indication_pdu.exit, %.thread
  %16 = phi i32 [ 0, %.thread ], [ %31, %dissect_lbt_dl_indication_pdu.exit ]
  %.016.i = phi i16 [ 0, %.thread ], [ %30, %dissect_lbt_dl_indication_pdu.exit ]
  %17 = call ptr (ptr, i32, i32, ptr, ...) @ptvcursor_add_text_with_subtree(ptr noundef %0, i32 noundef -1, i32 noundef %13, ptr noundef nonnull @.str.1840, i32 noundef %16) #7
  call void @llvm.lifetime.start.p0(i64 4, ptr nonnull %3)
  call void @llvm.lifetime.start.p0(i64 4, ptr nonnull %4)
  %18 = load i32, ptr @hf_nfapi_lbt_dl_ind_pdu_type, align 4
  %19 = call ptr @ptvcursor_add_ret_uint(ptr noundef %0, i32 noundef %18, i32 noundef 1, i32 noundef 0, ptr noundef nonnull %3) #7
  %20 = load i32, ptr %3, align 4
  %21 = icmp ugt i32 %20, 1
  br i1 %21, label %22, label %dissect_lbt_dl_indication_pdu.exit

22:                                               ; preds = %15
  %23 = call ptr (ptr, ptr, ptr, ptr, ...) @expert_add_info_format(ptr noundef %1, ptr noundef %19, ptr noundef nonnull @ei_invalid_range, ptr noundef nonnull @.str.2284) #7
  br label %dissect_lbt_dl_indication_pdu.exit

dissect_lbt_dl_indication_pdu.exit:               ; preds = %15, %22
  %24 = load i32, ptr @hf_nfapi_pdu_size, align 4
  %25 = call ptr @ptvcursor_add_ret_uint(ptr noundef %0, i32 noundef %24, i32 noundef 1, i32 noundef 0, ptr noundef nonnull %4) #7
  %26 = call i32 @ptvcursor_current_offset(ptr noundef %0) #7
  %27 = load i32, ptr %4, align 4
  %28 = add i32 %26, -2
  %29 = add i32 %28, %27
  call fastcc void @dissect_tlv_list(ptr noundef %0, ptr noundef %1, i32 noundef %29)
  call void @llvm.lifetime.end.p0(i64 4, ptr nonnull %3)
  call void @llvm.lifetime.end.p0(i64 4, ptr nonnull %4)
  call void @ptvcursor_pop_subtree(ptr noundef %0) #7
  %30 = add i16 %.016.i, 1
  %31 = zext i16 %30 to i32
  %32 = icmp ugt i32 %12, %31
  br i1 %32, label %15, label %33, !llvm.loop !4

33:                                               ; preds = %dissect_lbt_dl_indication_pdu.exit
  call void @ptvcursor_pop_subtree(ptr noundef %0) #7
  br label %dissect_array_value.exit

dissect_array_value.exit:                         ; preds = %10, %33
  ret void
}